target datalayout = "e-m:e-p270:32:32-p271:32:32-p272:64:64-i64:64-i128:128-f80:128-n8:16:32:64-S128"
target triple = "x86_64-pc-linux-gnu"

%"class.datalog::mk_unbound_compressor" = type { %"class.datalog::rule_transformer::plugin", ptr, ptr, ptr, %class.ref_vector, i8, %class.svector, %class.hashtable, %class.map, %class.obj_hashtable, %class.ast_counter, %class.ref_vector.8 }
%"class.datalog::rule_transformer::plugin" = type { ptr, i32, i8, ptr }
%class.ref_vector = type { %class.ref_vector_core }
%class.ref_vector_core = type { %class.ref_manager_wrapper, %class.ptr_vector }
%class.ref_manager_wrapper = type { ptr }
%class.ptr_vector = type { %class.vector }
%class.vector = type { ptr }
%class.svector = type { %class.vector.0 }
%class.vector.0 = type { ptr }
%class.hashtable = type { %class.core_hashtable.base, [4 x i8] }
%class.core_hashtable.base = type <{ [8 x i8], ptr, i32, i32, i32 }>
%class.map = type { %class.table2map }
%class.table2map = type { %class.core_hashtable.1 }
%class.core_hashtable.1 = type <{ [8 x i8], ptr, i32, i32, i32, [4 x i8] }>
%class.obj_hashtable = type { %class.core_hashtable.base.4, [4 x i8] }
%class.core_hashtable.base.4 = type <{ ptr, i32, i32, i32 }>
%class.ast_counter = type { %class.obj_map }
%class.obj_map = type { %class.core_hashtable.5 }
%class.core_hashtable.5 = type <{ ptr, i32, i32, i32, [4 x i8] }>
%class.ref_vector.8 = type { %class.ref_vector_core.9 }
%class.ref_vector_core.9 = type { %class.ref_manager_wrapper.10, %class.ptr_vector.11 }
%class.ref_manager_wrapper.10 = type { ptr }
%class.ptr_vector.11 = type { %class.vector.12 }
%class.vector.12 = type { ptr }
%class.obj_ref.149 = type { ptr, ptr }

; Function Attrs: mustprogress uwtable
define linkonce_odr hidden void @_ZN19ref_manager_wrapperIN7datalog4ruleENS0_12rule_managerEE7dec_refEPS1_(ptr noundef nonnull align 8 dereferenceable(8) %0, ptr noundef %1) #4 comdat align 2 {
  %3 = alloca ptr, align 8
  %4 = alloca ptr, align 8
  store ptr %0, ptr %3, align 8, !tbaa !434
  store ptr %1, ptr %4, align 8, !tbaa !284
  %5 = load ptr, ptr %3, align 8
  %6 = getelementptr inbounds nuw %class.ref_manager_wrapper, ptr %5, i32 0, i32 0
  %7 = load ptr, ptr %6, align 8, !tbaa !436
  %8 = load ptr, ptr %4, align 8, !tbaa !284
  call void @_ZN7datalog12rule_manager7dec_refEPNS_4ruleE(ptr noundef nonnull align 8 dereferenceable(1104) %7, ptr noundef %8)
  ret void
}

; Function Attrs: mustprogress uwtable
define linkonce_odr hidden void @_ZN19ref_manager_wrapperIN7datalog4ruleENS0_12rule_managerEE7inc_refEPS1_(ptr noundef nonnull align 8 dereferenceable(8) %0, ptr noundef %1) #4 comdat align 2 {
  %3 = alloca ptr, align 8
  %4 = alloca ptr, align 8
  store ptr %0, ptr %3, align 8, !tbaa !434
  store ptr %1, ptr %4, align 8, !tbaa !284
  %5 = load ptr, ptr %3, align 8
  %6 = getelementptr inbounds nuw %class.ref_manager_wrapper, ptr %5, i32 0, i32 0
  %7 = load ptr, ptr %6, align 8, !tbaa !436
  %8 = load ptr, ptr %4, align 8, !tbaa !284
  call void @_ZN7datalog12rule_manager7inc_refEPNS_4ruleE(ptr noundef nonnull align 8 dereferenceable(1104) %7, ptr noundef %8)
  ret void
}

; Function Attrs: mustprogress uwtable
define linkonce_odr hidden void @_ZN15ref_vector_coreIN7datalog4ruleE19ref_manager_wrapperIS1_NS0_12rule_managerEEE7dec_refEPS1_(ptr noundef nonnull align 8 dereferenceable(16) %0, ptr noundef %1) #4 comdat align 2 {
  %3 = alloca ptr, align 8
  %4 = alloca ptr, align 8
  store ptr %0, ptr %3, align 8, !tbaa !272
  store ptr %1, ptr %4, align 8, !tbaa !284
  %5 = load ptr, ptr %3, align 8
  %6 = load ptr, ptr %4, align 8, !tbaa !284
  call void @_ZN19ref_manager_wrapperIN7datalog4ruleENS0_12rule_managerEE7dec_refEPS1_(ptr noundef nonnull align 8 dereferenceable(8) %5, ptr noundef %6)
  ret void
}

; Function Attrs: mustprogress nounwind uwtable
define linkonce_odr hidden noundef nonnull align 8 dereferenceable(8) ptr @_ZN6vectorIPN7datalog4ruleELb0EjEixEj(ptr noundef nonnull align 8 dereferenceable(8) %0, i32 noundef %1) #5 comdat align 2 {
  %3 = alloca ptr, align 8
  %4 = alloca i32, align 4
  store ptr %0, ptr %3, align 8, !tbaa !431
  store i32 %1, ptr %4, align 4, !tbaa !58
  %5 = load ptr, ptr %3, align 8
  %6 = getelementptr inbounds nuw %class.vector, ptr %5, i32 0, i32 0
  %7 = load ptr, ptr %6, align 8, !tbaa !433
  %8 = load i32, ptr %4, align 4, !tbaa !58
  %9 = zext i32 %8 to i64
  %10 = getelementptr inbounds nuw ptr, ptr %7, i64 %9
  ret ptr %10
}

; Function Attrs: mustprogress uwtable
define linkonce_odr hidden void @_ZN15ref_vector_coreIN7datalog4ruleE19ref_manager_wrapperIS1_NS0_12rule_managerEEE7inc_refEPS1_(ptr noundef nonnull align 8 dereferenceable(16) %0, ptr noundef %1) #4 comdat align 2 {
  %3 = alloca ptr, align 8
  %4 = alloca ptr, align 8
  store ptr %0, ptr %3, align 8, !tbaa !272
  store ptr %1, ptr %4, align 8, !tbaa !284
  %5 = load ptr, ptr %3, align 8
  %6 = load ptr, ptr %4, align 8, !tbaa !284
  call void @_ZN19ref_manager_wrapperIN7datalog4ruleENS0_12rule_managerEE7inc_refEPS1_(ptr noundef nonnull align 8 dereferenceable(8) %5, ptr noundef %6)
  ret void
}

; Function Attrs: mustprogress uwtable
define linkonce_odr hidden void @_ZN15ref_vector_coreIN7datalog4ruleE19ref_manager_wrapperIS1_NS0_12rule_managerEEE3setEjPS1_(ptr noundef nonnull align 8 dereferenceable(16) %0, i32 noundef %1, ptr noundef %2) #4 comdat align 2 {
  %4 = alloca ptr, align 8
  %5 = alloca i32, align 4
  %6 = alloca ptr, align 8
  store ptr %0, ptr %4, align 8, !tbaa !272
  store i32 %1, ptr %5, align 4, !tbaa !58
  store ptr %2, ptr %6, align 8, !tbaa !284
  %7 = load ptr, ptr %4, align 8
  %8 = load ptr, ptr %6, align 8, !tbaa !284
  call void @_ZN15ref_vector_coreIN7datalog4ruleE19ref_manager_wrapperIS1_NS0_12rule_managerEEE7inc_refEPS1_(ptr noundef nonnull align 8 dereferenceable(16) %7, ptr noundef %8)
  %9 = getelementptr inbounds nuw %class.ref_vector_core, ptr %7, i32 0, i32 1
  %10 = load i32, ptr %5, align 4, !tbaa !58
  %11 = call noundef nonnull align 8 dereferenceable(8) ptr @_ZN6vectorIPN7datalog4ruleELb0EjEixEj(ptr noundef nonnull align 8 dereferenceable(8) %9, i32 noundef %10)
  %12 = load ptr, ptr %11, align 8, !tbaa !284
  call void @_ZN15ref_vector_coreIN7datalog4ruleE19ref_manager_wrapperIS1_NS0_12rule_managerEEE7dec_refEPS1_(ptr noundef nonnull align 8 dereferenceable(16) %7, ptr noundef %12)
  %13 = load ptr, ptr %6, align 8, !tbaa !284
  %14 = getelementptr inbounds nuw %class.ref_vector_core, ptr %7, i32 0, i32 1
  %15 = load i32, ptr %5, align 4, !tbaa !58
  %16 = call noundef nonnull align 8 dereferenceable(8) ptr @_ZN6vectorIPN7datalog4ruleELb0EjEixEj(ptr noundef nonnull align 8 dereferenceable(8) %14, i32 noundef %15)
  store ptr %13, ptr %16, align 8, !tbaa !284
  ret void
}

; Function Attrs: mustprogress nounwind uwtable
define linkonce_odr hidden noundef nonnull align 8 dereferenceable(8) ptr @_ZNK6vectorIPN7datalog4ruleELb0EjEixEj(ptr noundef nonnull align 8 dereferenceable(8) %0, i32 noundef %1) #5 comdat align 2 {
  %3 = alloca ptr, align 8
  %4 = alloca i32, align 4
  store ptr %0, ptr %3, align 8, !tbaa !431
  store i32 %1, ptr %4, align 4, !tbaa !58
  %5 = load ptr, ptr %3, align 8
  %6 = getelementptr inbounds nuw %class.vector, ptr %5, i32 0, i32 0
  %7 = load ptr, ptr %6, align 8, !tbaa !433
  %8 = load i32, ptr %4, align 4, !tbaa !58
  %9 = zext i32 %8 to i64
  %10 = getelementptr inbounds nuw ptr, ptr %7, i64 %9
  ret ptr %10
}

; Function Attrs: mustprogress uwtable
define linkonce_odr hidden void @_ZN10ref_vectorIN7datalog4ruleENS0_12rule_managerEE3setEjPS1_(ptr noundef nonnull align 8 dereferenceable(16) %0, i32 noundef %1, ptr noundef %2) #4 comdat align 2 {
  %4 = alloca ptr, align 8
  %5 = alloca i32, align 4
  %6 = alloca ptr, align 8
  store ptr %0, ptr %4, align 8, !tbaa !242
  store i32 %1, ptr %5, align 4, !tbaa !58
  store ptr %2, ptr %6, align 8, !tbaa !284
  %7 = load ptr, ptr %4, align 8
  %8 = load i32, ptr %5, align 4, !tbaa !58
  %9 = load ptr, ptr %6, align 8, !tbaa !284
  call void @_ZN15ref_vector_coreIN7datalog4ruleE19ref_manager_wrapperIS1_NS0_12rule_managerEEE3setEjPS1_(ptr noundef nonnull align 8 dereferenceable(16) %7, i32 noundef %8, ptr noundef %9)
  ret void
}

; Function Attrs: mustprogress nounwind uwtable
define linkonce_odr hidden noundef ptr @_ZNK7obj_refIN7datalog4ruleENS0_12rule_managerEEcvPS1_Ev(ptr noundef nonnull align 8 dereferenceable(16) %0) #5 comdat align 2 {
  %2 = alloca ptr, align 8
  store ptr %0, ptr %2, align 8, !tbaa !352
  %3 = load ptr, ptr %2, align 8
  %4 = getelementptr inbounds nuw %class.obj_ref.149, ptr %3, i32 0, i32 0
  %5 = load ptr, ptr %4, align 8, !tbaa !354
  ret ptr %5
}

; Function Attrs: mustprogress nounwind uwtable
define linkonce_odr hidden noundef ptr @_ZNK15ref_vector_coreIN7datalog4ruleE19ref_manager_wrapperIS1_NS0_12rule_managerEEE3getEj(ptr noundef nonnull align 8 dereferenceable(16) %0, i32 noundef %1) #5 comdat align 2 {
  %3 = alloca ptr, align 8
  %4 = alloca i32, align 4
  store ptr %0, ptr %3, align 8, !tbaa !272
  store i32 %1, ptr %4, align 4, !tbaa !58
  %5 = load ptr, ptr %3, align 8
  %6 = getelementptr inbounds nuw %class.ref_vector_core, ptr %5, i32 0, i32 1
  %7 = load i32, ptr %4, align 4, !tbaa !58
  %8 = call noundef nonnull align 8 dereferenceable(8) ptr @_ZNK6vectorIPN7datalog4ruleELb0EjEixEj(ptr noundef nonnull align 8 dereferenceable(8) %6, i32 noundef %7)
  %9 = load ptr, ptr %8, align 8, !tbaa !284
  ret ptr %9
}

; Function Attrs: mustprogress uwtable
define hidden void @_ZN7datalog21mk_unbound_compressor29replace_by_decompression_ruleERKNS_8rule_setEjjj(ptr noundef nonnull align 8 dereferenceable(208) %0, ptr noundef nonnull align 8 dereferenceable(248) %1, i32 noundef %2, i32 noundef %3, i32 noundef %4) #4 align 2 personality ptr @__gxx_personality_v0 {
  %6 = alloca ptr, align 8
  %7 = alloca ptr, align 8
  %8 = alloca i32, align 4
  %9 = alloca i32, align 4
  %10 = alloca i32, align 4
  %11 = alloca ptr, align 8
  %12 = alloca %class.obj_ref.149, align 8
  %13 = alloca ptr, align 8
  %14 = alloca i32, align 4
  store ptr %0, ptr %6, align 8, !tbaa !3
  store ptr %1, ptr %7, align 8, !tbaa !329
  store i32 %2, ptr %8, align 4, !tbaa !58
  store i32 %3, ptr %9, align 4, !tbaa !58
  store i32 %4, ptr %10, align 4, !tbaa !58
  %15 = load ptr, ptr %6, align 8
  call void @llvm.lifetime.start.p0(i64 8, ptr %11) #3
  %16 = getelementptr inbounds nuw %"class.datalog::mk_unbound_compressor", ptr %15, i32 0, i32 4
  %17 = load i32, ptr %8, align 4, !tbaa !58
  %18 = call noundef ptr @_ZNK15ref_vector_coreIN7datalog4ruleE19ref_manager_wrapperIS1_NS0_12rule_managerEEE3getEj(ptr noundef nonnull align 8 dereferenceable(16) %16, i32 noundef %17)
  store ptr %18, ptr %11, align 8, !tbaa !284
  call void @llvm.lifetime.start.p0(i64 16, ptr %12) #3
  %19 = load ptr, ptr %11, align 8, !tbaa !284
  %20 = load i32, ptr %9, align 4, !tbaa !58
  %21 = load i32, ptr %10, align 4, !tbaa !58
  call void @_ZN7datalog21mk_unbound_compressor21mk_decompression_ruleEPNS_4ruleEjj(ptr dead_on_unwind writable sret(%class.obj_ref.149) align 8 %12, ptr noundef nonnull align 8 dereferenceable(208) %15, ptr noundef %19, i32 noundef %20, i32 noundef %21)
  %22 = getelementptr inbounds nuw %"class.datalog::mk_unbound_compressor", ptr %15, i32 0, i32 4
  %23 = load i32, ptr %8, align 4, !tbaa !58
  %24 = invoke noundef ptr @_ZNK7obj_refIN7datalog4ruleENS0_12rule_managerEEcvPS1_Ev(ptr noundef nonnull align 8 dereferenceable(16) %12)
          to label %25 unwind label %31

25:                                               ; preds = %5
  invoke void @_ZN10ref_vectorIN7datalog4ruleENS0_12rule_managerEE3setEjPS1_(ptr noundef nonnull align 8 dereferenceable(16) %22, i32 noundef %23, ptr noundef %24)
          to label %26 unwind label %31

26:                                               ; preds = %25
  %27 = load ptr, ptr %7, align 8, !tbaa !329
  %28 = load i32, ptr %8, align 4, !tbaa !58
  invoke void @_ZN7datalog21mk_unbound_compressor12detect_tasksERKNS_8rule_setEj(ptr noundef nonnull align 8 dereferenceable(208) %15, ptr noundef nonnull align 8 dereferenceable(248) %27, i32 noundef %28)
          to label %29 unwind label %31

29:                                               ; preds = %26
  %30 = getelementptr inbounds nuw %"class.datalog::mk_unbound_compressor", ptr %15, i32 0, i32 5
  store i8 1, ptr %30, align 8, !tbaa !340
  call void @_ZN7obj_refIN7datalog4ruleENS0_12rule_managerEED2Ev(ptr noundef nonnull align 8 dereferenceable(16) %12) #3
  call void @llvm.lifetime.end.p0(i64 16, ptr %12) #3
  call void @llvm.lifetime.end.p0(i64 8, ptr %11) #3
  ret void

31:                                               ; preds = %26, %25, %5
  %32 = landingpad { ptr, i32 }
          cleanup
  %33 = extractvalue { ptr, i32 } %32, 0
  store ptr %33, ptr %13, align 8
  %34 = extractvalue { ptr, i32 } %32, 1
  store i32 %34, ptr %14, align 4
  call void @_ZN7obj_refIN7datalog4ruleENS0_12rule_managerEED2Ev(ptr noundef nonnull align 8 dereferenceable(16) %12) #3
  call void @llvm.lifetime.end.p0(i64 16, ptr %12) #3
  call void @llvm.lifetime.end.p0(i64 8, ptr %11) #3
  br label %35

35:                                               ; preds = %31
  %36 = load ptr, ptr %13, align 8
  %37 = load i32, ptr %14, align 4
  %38 = insertvalue { ptr, i32 } poison, ptr %36, 0
  %39 = insertvalue { ptr, i32 } %38, i32 %37, 1
  resume { ptr, i32 } %39
}