; Function Attrs: mustprogress uwtable
define hidden void @_ZN7datalog21mk_unbound_compressor29replace_by_decompression_ruleERKNS_8rule_setEjjj(ptr noundef nonnull align 8 dereferenceable(208) %0, ptr noundef nonnull readonly align 8 captures(none) dereferenceable(248) %1, i32 noundef %2, i32 noundef %3, i32 noundef %4) local_unnamed_addr #3 align 2 personality ptr @__gxx_personality_v0 {
  %6 = alloca %class.obj_ref.149, align 8
  %7 = getelementptr inbounds nuw i8, ptr %0, i64 48
  %8 = getelementptr inbounds nuw i8, ptr %0, i64 56
  %9 = load ptr, ptr %8, align 8, !tbaa !214
  %10 = zext i32 %2 to i64
  %11 = getelementptr inbounds nuw ptr, ptr %9, i64 %10
  %12 = load ptr, ptr %11, align 8, !tbaa !263
  call void @llvm.lifetime.start.p0(i64 16, ptr nonnull %6) #20
  call void @_ZN7datalog21mk_unbound_compressor21mk_decompression_ruleEPNS_4ruleEjj(ptr dead_on_unwind nonnull writable sret(%class.obj_ref.149) align 8 %6, ptr noundef nonnull align 8 dereferenceable(208) %0, ptr noundef %12, i32 noundef %3, i32 noundef %4)
  %13 = load ptr, ptr %6, align 8, !tbaa !353
  %14 = load ptr, ptr %7, align 8, !tbaa !264
  invoke void @_ZN7datalog12rule_manager7inc_refEPNS_4ruleE(ptr noundef nonnull align 8 dereferenceable(1104) %14, ptr noundef %13)
          to label %.noexc unwind label %31

.noexc:                                           ; preds = %5
  %15 = load ptr, ptr %8, align 8, !tbaa !214
  %16 = getelementptr inbounds nuw ptr, ptr %15, i64 %10
  %17 = load ptr, ptr %16, align 8, !tbaa !263
  %18 = load ptr, ptr %7, align 8, !tbaa !264
  invoke void @_ZN7datalog12rule_manager7dec_refEPNS_4ruleE(ptr noundef nonnull align 8 dereferenceable(1104) %18, ptr noundef %17)
          to label %19 unwind label %31

19:                                               ; preds = %.noexc
  %20 = load ptr, ptr %8, align 8, !tbaa !214
  %21 = getelementptr inbounds nuw ptr, ptr %20, i64 %10
  store ptr %13, ptr %21, align 8, !tbaa !263
  invoke void @_ZN7datalog21mk_unbound_compressor12detect_tasksERKNS_8rule_setEj(ptr noundef nonnull align 8 dereferenceable(208) %0, ptr noundef nonnull align 8 dereferenceable(248) %1, i32 noundef %2)
          to label %22 unwind label %31

22:                                               ; preds = %19
  %23 = getelementptr inbounds nuw i8, ptr %0, i64 64
  store i8 1, ptr %23, align 8, !tbaa !350
  %24 = load ptr, ptr %6, align 8, !tbaa !353
  %.not.i.i = icmp eq ptr %24, null
  br i1 %.not.i.i, label %_ZN7obj_refIN7datalog4ruleENS0_12rule_managerEED2Ev.exit, label %25

25:                                               ; preds = %22
  %26 = getelementptr inbounds nuw i8, ptr %6, i64 8
  %27 = load ptr, ptr %26, align 8, !tbaa !355
  invoke void @_ZN7datalog12rule_manager7dec_refEPNS_4ruleE(ptr noundef nonnull align 8 dereferenceable(1104) %27, ptr noundef nonnull %24)
          to label %_ZN7obj_refIN7datalog4ruleENS0_12rule_managerEED2Ev.exit unwind label %28

28:                                               ; preds = %25
  %29 = landingpad { ptr, i32 }
          catch ptr null
  %30 = extractvalue { ptr, i32 } %29, 0
  call void @__clang_call_terminate(ptr %30) #21
  unreachable

_ZN7obj_refIN7datalog4ruleENS0_12rule_managerEED2Ev.exit: ; preds = %22, %25
  call void @llvm.lifetime.end.p0(i64 16, ptr nonnull %6) #20
  ret void

31:                                               ; preds = %.noexc, %5, %19
  %32 = landingpad { ptr, i32 }
          cleanup
  call void @_ZN7obj_refIN7datalog4ruleENS0_12rule_managerEED2Ev(ptr noundef nonnull align 8 dereferenceable(16) %6) #20
  call void @llvm.lifetime.end.p0(i64 16, ptr nonnull %6) #20
  resume { ptr, i32 } %32
}